target datalayout = "e-m:e-p270:32:32-p271:32:32-p272:64:64-i64:64-i128:128-f80:128-n8:16:32:64-S128"
target triple = "x86_64-pc-linux-gnu"

%struct.PJconsts = type { ptr, ptr, ptr, ptr, ptr, ptr, ptr, ptr, ptr, ptr, ptr, ptr, i32, ptr, ptr, ptr, ptr, ptr, ptr, ptr, ptr, double, double, double, double, double, double, double, double, double, double, double, double, double, double, double, double, double, double, double, double, double, double, i32, i32, i32, i32, i32, i32, i32, i32, i32, i32, i32, ptr, ptr, ptr, ptr, ptr, ptr, double, double, double, double, double, double, double, double, double, double, double, i32, [7 x double], i32, ptr, ptr, double, double, i32, [4 x i8], %"class.std::shared_ptr", i8, double, i8, %"class.std::__cxx11::basic_string", %"class.std::__cxx11::basic_string", %"class.std::__cxx11::basic_string", i8, %"class.std::vector", i32, %"class.std::vector.3", i32, i8, i8, i8, ptr }
%"class.std::shared_ptr" = type { %"class.std::__shared_ptr" }
%"class.std::__shared_ptr" = type { ptr, %"class.std::__shared_count" }
%"class.std::__shared_count" = type { ptr }
%"class.std::__cxx11::basic_string" = type { %"struct.std::__cxx11::basic_string<char>::_Alloc_hider", i64, %union.anon }
%"struct.std::__cxx11::basic_string<char>::_Alloc_hider" = type { ptr }
%union.anon = type { i64, [8 x i8] }
%"class.std::vector" = type { %"struct.std::_Vector_base" }
%"struct.std::_Vector_base" = type { %"struct.std::_Vector_base<osgeo::proj::operation::GridDescription, std::allocator<osgeo::proj::operation::GridDescription>>::_Vector_impl" }
%"struct.std::_Vector_base<osgeo::proj::operation::GridDescription, std::allocator<osgeo::proj::operation::GridDescription>>::_Vector_impl" = type { %"struct.std::_Vector_base<osgeo::proj::operation::GridDescription, std::allocator<osgeo::proj::operation::GridDescription>>::_Vector_impl_data" }
%"struct.std::_Vector_base<osgeo::proj::operation::GridDescription, std::allocator<osgeo::proj::operation::GridDescription>>::_Vector_impl_data" = type { ptr, ptr, ptr }
%"class.std::vector.3" = type { %"struct.std::_Vector_base.4" }
%"struct.std::_Vector_base.4" = type { %"struct.std::_Vector_base<PJCoordOperation, std::allocator<PJCoordOperation>>::_Vector_impl" }
%"struct.std::_Vector_base<PJCoordOperation, std::allocator<PJCoordOperation>>::_Vector_impl" = type { %"struct.std::_Vector_base<PJCoordOperation, std::allocator<PJCoordOperation>>::_Vector_impl_data" }
%"struct.std::_Vector_base<PJCoordOperation, std::allocator<PJCoordOperation>>::_Vector_impl_data" = type { ptr, ptr, ptr }
%"struct.(anonymous namespace)::pj_gn_sinu_data" = type { ptr, double, double, double, double }
%struct.PJ_LP = type { double, double }
%struct.PJ_XY = type { double, double }

; Function Attrs: mustprogress uwtable
define internal { double, double } @_ZL17gn_sinu_e_inverse5PJ_XYP8PJconsts(double %0, double %1, ptr noundef %2) #0 {
  %4 = alloca %struct.PJ_LP, align 8
  %5 = alloca %struct.PJ_XY, align 8
  %6 = alloca ptr, align 8
  %7 = alloca double, align 8
  %8 = getelementptr inbounds nuw { double, double }, ptr %5, i32 0, i32 0
  store double %0, ptr %8, align 8
  %9 = getelementptr inbounds nuw { double, double }, ptr %5, i32 0, i32 1
  store double %1, ptr %9, align 8
  store ptr %2, ptr %6, align 8, !tbaa !3
  call void @llvm.memset.p0.i64(ptr align 8 %4, i8 0, i64 16, i1 false)
  call void @llvm.lifetime.start.p0(i64 8, ptr %7) #8
  %10 = getelementptr inbounds nuw %struct.PJ_XY, ptr %5, i32 0, i32 1
  %11 = load double, ptr %10, align 8, !tbaa !55
  %12 = load ptr, ptr %6, align 8, !tbaa !3
  %13 = getelementptr inbounds nuw %struct.PJconsts, ptr %12, i32 0, i32 11
  %14 = load ptr, ptr %13, align 8, !tbaa !43
  %15 = getelementptr inbounds nuw %"struct.(anonymous namespace)::pj_gn_sinu_data", ptr %14, i32 0, i32 0
  %16 = load ptr, ptr %15, align 8, !tbaa !46
  %17 = call noundef double @_Z11pj_inv_mlfndPKd(double noundef %11, ptr noundef %16)
  %18 = getelementptr inbounds nuw %struct.PJ_LP, ptr %4, i32 0, i32 1
  store double %17, ptr %18, align 8, !tbaa !57
  %19 = getelementptr inbounds nuw %struct.PJ_LP, ptr %4, i32 0, i32 1
  %20 = load double, ptr %19, align 8, !tbaa !57
  %21 = call double @llvm.fabs.f64(double %20)
  store double %21, ptr %7, align 8, !tbaa !59
  %22 = load double, ptr %7, align 8, !tbaa !59
  %23 = fcmp olt double %22, 0x3FF921FB54442D18
  br i1 %23, label %24, label %45

24:                                               ; preds = %3
  %25 = getelementptr inbounds nuw %struct.PJ_LP, ptr %4, i32 0, i32 1
  %26 = load double, ptr %25, align 8, !tbaa !57
  %27 = call double @sin(double noundef %26) #8, !tbaa !54
  store double %27, ptr %7, align 8, !tbaa !59
  %28 = getelementptr inbounds nuw %struct.PJ_XY, ptr %5, i32 0, i32 0
  %29 = load double, ptr %28, align 8, !tbaa !60
  %30 = load ptr, ptr %6, align 8, !tbaa !3
  %31 = getelementptr inbounds nuw %struct.PJconsts, ptr %30, i32 0, i32 27
  %32 = load double, ptr %31, align 8, !tbaa !49
  %33 = load double, ptr %7, align 8, !tbaa !59
  %34 = fmul double %32, %33
  %35 = load double, ptr %7, align 8, !tbaa !59
  %36 = fneg double %34
  %37 = call double @llvm.fmuladd.f64(double %36, double %35, double 1.000000e+00)
  %38 = call double @sqrt(double noundef %37) #8, !tbaa !54
  %39 = fmul double %29, %38
  %40 = getelementptr inbounds nuw %struct.PJ_LP, ptr %4, i32 0, i32 1
  %41 = load double, ptr %40, align 8, !tbaa !57
  %42 = call double @cos(double noundef %41) #8, !tbaa !54
  %43 = fdiv double %39, %42
  %44 = getelementptr inbounds nuw %struct.PJ_LP, ptr %4, i32 0, i32 0
  store double %43, ptr %44, align 8, !tbaa !61
  br label %55

45:                                               ; preds = %3
  %46 = load double, ptr %7, align 8, !tbaa !59
  %47 = fsub double %46, 1.000000e-10
  %48 = fcmp olt double %47, 0x3FF921FB54442D18
  br i1 %48, label %49, label %51

49:                                               ; preds = %45
  %50 = getelementptr inbounds nuw %struct.PJ_LP, ptr %4, i32 0, i32 0
  store double 0.000000e+00, ptr %50, align 8, !tbaa !61
  br label %54

51:                                               ; preds = %45
  %52 = load ptr, ptr %6, align 8, !tbaa !3
  %53 = call i32 @proj_errno_set(ptr noundef %52, i32 noundef 2050)
  br label %54

54:                                               ; preds = %51, %49
  br label %55

55:                                               ; preds = %54, %24
  call void @llvm.lifetime.end.p0(i64 8, ptr %7) #8
  %56 = load { double, double }, ptr %4, align 8
  ret { double, double } %56
}