; Function Attrs: mustprogress uwtable
define internal { double, double } @_ZL17gn_sinu_e_inverse5PJ_XYP8PJconsts(double %0, double %1, ptr noundef %2) #0 {
  %4 = getelementptr inbounds nuw i8, ptr %2, i64 88
  %5 = load ptr, ptr %4, align 8, !tbaa !40
  %6 = load ptr, ptr %5, align 8, !tbaa !43
  %7 = tail call noundef double @_Z11pj_inv_mlfndPKd(double noundef %1, ptr noundef %6)
  %8 = tail call double @llvm.fabs.f64(double %7)
  %9 = fcmp olt double %8, 0x3FF921FB54442D18
  br i1 %9, label %10, label %21

10:                                               ; preds = %3
  %11 = tail call double @sin(double noundef %7) #7, !tbaa !51
  %12 = getelementptr inbounds nuw i8, ptr %2, i64 216
  %13 = load double, ptr %12, align 8, !tbaa !46
  %14 = fneg double %11
  %15 = fmul double %13, %14
  %16 = tail call double @llvm.fmuladd.f64(double %15, double %11, double 1.000000e+00)
  %17 = tail call double @sqrt(double noundef %16) #7, !tbaa !51
  %18 = fmul double %0, %17
  %19 = tail call double @cos(double noundef %7) #7, !tbaa !51
  %20 = fdiv double %18, %19
  br label %26

21:                                               ; preds = %3
  %22 = fadd double %8, -1.000000e-10
  %23 = fcmp olt double %22, 0x3FF921FB54442D18
  br i1 %23, label %26, label %24

24:                                               ; preds = %21
  %25 = tail call i32 @proj_errno_set(ptr noundef nonnull %2, i32 noundef 2050)
  br label %26

26:                                               ; preds = %21, %24, %10
  %.sroa.07.0 = phi double [ %20, %10 ], [ 0.000000e+00, %24 ], [ 0.000000e+00, %21 ]
  %.fca.0.insert = insertvalue { double, double } poison, double %.sroa.07.0, 0
  %.fca.1.insert = insertvalue { double, double } %.fca.0.insert, double %7, 1
  ret { double, double } %.fca.1.insert
}